target datalayout = "e-m:e-p270:32:32-p271:32:32-p272:64:64-i64:64-i128:128-f80:128-n8:16:32:64-S128"
target triple = "x86_64-pc-linux-gnu"

%struct.ssh_bignum = type { ptr, i32 }

; Function Attrs: nounwind uwtable
define internal void @ssh_free_glib_allocated_bignum(ptr noundef %0) #0 {
  %2 = alloca ptr, align 8
  %3 = alloca ptr, align 8
  store ptr %0, ptr %2, align 8
  %4 = load ptr, ptr %2, align 8
  %5 = icmp eq ptr %4, null
  br i1 %5, label %6, label %7

6:                                                ; preds = %1
  br label %13

7:                                                ; preds = %1
  %8 = load ptr, ptr %2, align 8
  store ptr %8, ptr %3, align 8
  %9 = load ptr, ptr %3, align 8
  %10 = getelementptr inbounds %struct.ssh_bignum, ptr %9, i32 0, i32 0
  %11 = load ptr, ptr %10, align 8
  call void @g_free(ptr noundef %11)
  %12 = load ptr, ptr %3, align 8
  call void @g_free(ptr noundef %12)
  br label %13

13:                                               ; preds = %7, %6
  ret void
}