; Function Attrs: nounwind uwtable
define internal void @ssh_free_glib_allocated_bignum(ptr noundef %0) #0 {
  %2 = icmp eq ptr %0, null
  br i1 %2, label %5, label %3

3:                                                ; preds = %1
  %4 = load ptr, ptr %0, align 8
  tail call void @g_free(ptr noundef %4) #21
  tail call void @g_free(ptr noundef nonnull %0) #21
  br label %5

5:                                                ; preds = %1, %3
  ret void
}